(lp0
cnumpy.core.multiarray
scalar
p1
(cnumpy
dtype
p2
(S'f8'
p3
I0
I1
tp4
Rp5
(I3
S'<'
p6
NNNI-1
I-1
I0
tp7
bS'a\xe0\x13j\xe0E\xb1\xbf'
p8
tp9
Rp10
ag1
(g5
S' \xba\x0c]G\x12\xf1?'
p11
tp12
Rp13
ag1
(g5
S'\x16{\xfbe{\xfd\x07@'
p14
tp15
Rp16
ag1
(g5
S'\xffiB\xd3;\xb8\x01@'
p17
tp18
Rp19
a.