(lp0
cnumpy.core.multiarray
scalar
p1
(cnumpy
dtype
p2
(S'f8'
p3
I0
I1
tp4
Rp5
(I3
S'<'
p6
NNNI-1
I-1
I0
tp7
bS'c*@\xd6p]\xe3?'
p8
tp9
Rp10
ag1
(g5
S'-\x15\xf3Bwl\xb7\xbf'
p11
tp12
Rp13
ag1
(g5
S'\x9a\x92\x04\x11\x04\r\xe0?'
p14
tp15
Rp16
ag1
(g5
S'`\xc2`z4>\xc5?'
p17
tp18
Rp19
a.