(lp0
cnumpy.core.multiarray
scalar
p1
(cnumpy
dtype
p2
(S'f8'
p3
I0
I1
tp4
Rp5
(I3
S'<'
p6
NNNI-1
I-1
I0
tp7
bS'\xa3z\xe3:\xb4\xe3\xb0\xbf'
p8
tp9
Rp10
ag1
(g5
S'\xe5\xcc\xc1%\ng\xf0?'
p11
tp12
Rp13
ag1
(g5
S'%\xdb\n\x16\xaa\x0b\x08@'
p14
tp15
Rp16
ag1
(g5
S'&F;P\xc2F\x01@'
p17
tp18
Rp19
a.